(dp1
S'sg_version_data'
p2
(dp3
S'code'
p4
S'v0.19.18'
p5
sS'description'
p6
S'Performance increase for copying files on Windows and some cleanup.'
p7
sS'tags'
p8
(lp9
sS'sg_payload'
p10
(dp11
S'name'
p12
S'sgtk_core_v0.19.18.zip'
p13
sS'url'
p14
S'https://s3-proxy.shotgunstudio.com/d18c13bf0e59a9a82f18be518a1b6b508bcbd774/cbc1eb0cc721465d099c859a3ce04b2e7d86b620/sgtk_core_v0.19.18.zip?response-content-disposition=filename%3D%22sgtk_core_v0.19.18.zip%22&x-amz-meta-user-id=21075&x-amz-meta-user-type=ApiUser&X-Amz-Algorithm=AWS4-HMAC-SHA256&X-Amz-Credential=ASIAYJG6Z4JIVXIVZWZV%2F20201214%2Fus-west-2%2Fs3%2Faws4_request&X-Amz-Date=20201214T225944Z&X-Amz-Expires=900&X-Amz-SignedHeaders=host&X-Amz-Security-Token=FwoGZXIvYXdzEFgaDJG8Wx7RK0GvuU5zciKvAU1z4SvPdp6294ted9UOAkLTT0HMCaWmvFG9yK8NTkWMd7JT%2FJzUpGrvwN5Krtwb8K%2BPK95BMvJqopiwE3gxEX4SlZPgAKc24lEHC%2FVnCBQMCUFJhZOGUe%2FeKNUHwWO2I%2FlpWH%2F8sJb%2F%2B0e0LMVufEh63LKuOkvBheDj%2BWAAC2HQbBl1vjxUt1Od8HsV%2FvW5MDwEJinINyOpTaYFlFWkDBNbfy%2BLAmB8LN6SkyBVWB8o3tzf%2FgUyLfqv2z7QBYO45pbmoVSH56PNVM4xr4a4oMW4aVTyyf%2FFzix5NKks4w1Npcue%2Bw%3D%3D&X-Amz-Signature=2a619797354885d7471d0408e3664a11a1160b896bc8580c0e58a39b2c6d3939'
p15
sS'content_type'
p16
S'application/zip'
p17
sS'type'
p18
S'Attachment'
p19
sS'id'
p20
I23967
sS'link_type'
p21
S'upload'
p22
ssS'sg_status_list'
p23
S'prod'
p24
sS'sg_detailed_release_notes'
p25
(dp26
S'name'
p27
S'v0.19.18'
p28
sS'url'
p29
S'https://support.shotgunsoftware.com/hc/en-us/articles/219039838#v0.19.18'
p30
sS'content_type'
p31
NsS'type'
p32
S'Attachment'
p33
sS'id'
p34
I23965
sS'link_type'
p35
S'web'
p36
ssS'sg_documentation'
p37
(dp38
S'name'
p39
S'Documentation'
p40
sS'url'
p41
S'https://support.shotgunsoftware.com/hc/en-us/articles/219039808'
p42
sS'content_type'
p43
NsS'type'
p44
S'Attachment'
p45
sS'id'
p46
I23966
sS'link_type'
p47
S'web'
p48
ssS'type'
p49
S'CustomNonProjectEntity01'
p50
sS'id'
p51
I902
ssS'sg_bundle_data'
p52
Ns.